Certificate:
    Data:
        Version: 3 (0x2)
        Serial Number:
            59:8e:26:4e:2c:30:37:1f:ca:5c:7b:fe:fa:87:09:a6
        Signature Algorithm: sha256WithRSAEncryption
        Issuer: CN=musimundo.com
        Validity
            Not Before: Jun 17 14:52:35 2023 GMT
            Not After : Sep 19 14:52:35 2025 GMT
        Subject: CN=client1.domain.tld
        Subject Public Key Info:
            Public Key Algorithm: rsaEncryption
                RSA Public-Key: (2048 bit)
                Modulus:
                    00:be:e9:16:60:2d:ad:69:1e:b1:1d:ee:be:f7:47:
                    d3:6e:5b:b1:ce:c1:6a:5e:29:16:66:f7:2c:9c:04:
                    0e:5c:49:ea:45:ed:5c:39:0b:c2:3f:e3:25:05:88:
                    99:01:e9:ee:ed:09:33:8f:bf:93:63:11:da:51:dc:
                    ab:5c:c3:09:3f:18:ba:bb:dc:a9:8a:e0:5e:df:91:
                    8f:6e:84:fb:2e:88:fa:57:48:bd:99:3e:fe:a9:69:
                    97:e0:e1:ea:0d:0b:c6:fa:ec:0e:5d:62:2c:b1:ab:
                    b9:e9:9b:71:68:f6:da:db:41:a8:17:54:21:4b:e2:
                    21:64:4a:ce:f4:a8:00:88:d7:0e:01:92:e9:b1:2e:
                    ed:82:04:bf:54:c0:3d:a3:a7:3d:25:48:2a:ab:5c:
                    96:a2:68:e0:e0:47:a1:66:29:74:4b:7c:d1:77:ba:
                    eb:f8:a8:f1:59:5f:1c:3b:4c:1f:df:55:29:e5:76:
                    c3:47:60:89:27:1f:3e:b8:af:9b:a8:b0:7a:56:93:
                    ea:fb:94:e3:66:c0:fe:6e:19:15:6f:a6:b7:bc:ca:
                    0d:ba:37:de:5f:97:83:56:c5:5e:f6:84:4b:0a:f7:
                    4c:8e:3d:1b:99:39:83:e7:40:da:5a:51:18:30:86:
                    5b:36:b1:4e:b5:f8:19:a8:c3:2f:93:66:2b:33:ba:
                    16:d3
                Exponent: 65537 (0x10001)
        X509v3 extensions:
            X509v3 Basic Constraints: 
                CA:FALSE
            X509v3 Subject Key Identifier: 
                02:8D:35:52:26:5F:0A:BF:7A:B4:21:E8:14:18:A7:C5:9D:2F:ED:CD
            X509v3 Authority Key Identifier: 
                keyid:F3:77:F9:D0:FB:5E:23:71:7D:F6:81:4D:2D:39:FA:2F:52:9C:73:32
                DirName:/CN=musimundo.com
                serial:7A:09:16:F9:3D:49:95:F7:43:F2:4D:DF:CE:6B:8E:89:55:27:35:9D

            X509v3 Extended Key Usage: 
                TLS Web Client Authentication
            X509v3 Key Usage: 
                Digital Signature
    Signature Algorithm: sha256WithRSAEncryption
         30:16:d4:10:ca:fe:82:aa:86:4e:52:ad:a5:96:6d:ec:6e:67:
         22:2f:06:bd:0d:61:48:a5:b4:9e:9e:cf:f8:15:49:1e:db:1d:
         97:3d:7b:5b:c7:e1:a0:29:48:b8:63:24:cb:e7:7a:4c:61:5e:
         61:bb:c2:5a:ad:aa:cd:89:2e:50:5e:29:17:7d:5a:73:51:8f:
         54:52:ce:07:86:39:85:c9:ae:8c:60:65:96:4a:ff:6c:da:2a:
         62:8e:50:33:93:9a:bc:28:2e:4d:07:a7:ce:96:7c:10:41:d2:
         a6:7c:17:88:36:43:a8:73:92:44:b1:c8:90:52:1f:59:69:ad:
         a4:79:7f:f0:af:ba:e1:6a:8e:f6:2c:61:2c:4b:ba:ff:ca:31:
         d0:b7:ca:5e:7b:c8:55:2b:f0:ed:c9:3d:ab:a1:4e:5e:65:16:
         c6:21:7a:96:cb:0f:76:e7:48:d3:65:9f:e4:f9:ce:ef:7d:e6:
         bd:fb:0f:52:09:0c:c7:19:f1:0e:2f:ae:ec:2a:78:30:19:da:
         9f:85:cb:e8:a4:57:62:c7:01:81:ea:1b:67:97:90:dd:9b:19:
         19:73:18:f9:fd:ab:49:aa:81:76:cd:36:46:1f:58:53:17:9a:
         0c:08:f9:64:1c:f3:a9:28:72:95:30:21:7d:69:8f:8a:d4:f2:
         59:e0:fa:8b
-----BEGIN CERTIFICATE-----
MIIDZDCCAkygAwIBAgIQWY4mTiwwNx/KXHv++ocJpjANBgkqhkiG9w0BAQsFADAY
MRYwFAYDVQQDDA1tdXNpbXVuZG8uY29tMB4XDTIzMDYxNzE0NTIzNVoXDTI1MDkx
OTE0NTIzNVowHTEbMBkGA1UEAwwSY2xpZW50MS5kb21haW4udGxkMIIBIjANBgkq
hkiG9w0BAQEFAAOCAQ8AMIIBCgKCAQEAvukWYC2taR6xHe6+90fTbluxzsFqXikW
ZvcsnAQOXEnqRe1cOQvCP+MlBYiZAenu7Qkzj7+TYxHaUdyrXMMJPxi6u9ypiuBe
35GPboT7Loj6V0i9mT7+qWmX4OHqDQvG+uwOXWIssau56ZtxaPba20GoF1QhS+Ih
ZErO9KgAiNcOAZLpsS7tggS/VMA9o6c9JUgqq1yWomjg4EehZil0S3zRd7rr+Kjx
WV8cO0wf31Up5XbDR2CJJx8+uK+bqLB6VpPq+5TjZsD+bhkVb6a3vMoNujfeX5eD
VsVe9oRLCvdMjj0bmTmD50DaWlEYMIZbNrFOtfgZqMMvk2YrM7oW0wIDAQABo4Gk
MIGhMAkGA1UdEwQCMAAwHQYDVR0OBBYEFAKNNVImXwq/erQh6BQYp8WdL+3NMFMG
A1UdIwRMMEqAFPN3+dD7XiNxffaBTS05+i9SnHMyoRykGjAYMRYwFAYDVQQDDA1t
dXNpbXVuZG8uY29tghR6CRb5PUmV90PyTd/Oa46JVSc1nTATBgNVHSUEDDAKBggr
BgEFBQcDAjALBgNVHQ8EBAMCB4AwDQYJKoZIhvcNAQELBQADggEBADAW1BDK/oKq
hk5SraWWbexuZyIvBr0NYUiltJ6ez/gVSR7bHZc9e1vH4aApSLhjJMvnekxhXmG7
wlqtqs2JLlBeKRd9WnNRj1RSzgeGOYXJroxgZZZK/2zaKmKOUDOTmrwoLk0Hp86W
fBBB0qZ8F4g2Q6hzkkSxyJBSH1lpraR5f/CvuuFqjvYsYSxLuv/KMdC3yl57yFUr
8O3JPauhTl5lFsYhepbLD3bnSNNln+T5zu995r37D1IJDMcZ8Q4vruwqeDAZ2p+F
y+ikV2LHAYHqG2eXkN2bGRlzGPn9q0mqgXbNNkYfWFMXmgwI+WQc86kocpUwIX1p
j4rU8lng+os=
-----END CERTIFICATE-----
